; Function Attrs: mustprogress uwtable
define hidden void @_ZN19OpenColorIO_v2_5dev16CDLTransformImpl8setStyleENS_8CDLStyleE(ptr noundef nonnull align 8 dereferenceable(296) %0, i32 noundef %1) unnamed_addr #3 align 2 {
  %3 = load ptr, ptr %0, align 8, !tbaa !3
  %4 = getelementptr inbounds nuw i8, ptr %3, i64 8
  %5 = load ptr, ptr %4, align 8
  %6 = tail call noundef i32 %5(ptr noundef nonnull align 8 dereferenceable(296) %0) #26
  %7 = getelementptr inbounds nuw i8, ptr %0, i64 40
  %8 = tail call noundef i32 @_ZN19OpenColorIO_v2_5dev9CDLOpData12ConvertStyleENS_8CDLStyleENS_18TransformDirectionE(i32 noundef %1, i32 noundef %6)
  tail call void @_ZN19OpenColorIO_v2_5dev9CDLOpData8setStyleENS0_5StyleE(ptr noundef nonnull align 8 dereferenceable(256) %7, i32 noundef %8)
  ret void
}